(lp0
(I0
(lp1
I0
aI0
aI0
aI0
aI0
aI0
aI0
aI0
aI0
aI0
aS'Most people were protesting against the high price of bread.'
p2
tp3
a(I0
(lp4
I0
aI0
aI0
aI0
aI0
aI0
aI0
aI0
aI0
aI0
aS'To meet its regular expenses, such as the cost of maintaining an army, the court, running government offices or universities, the state was forced to increase taxes.'
p5
tp6
a(I0
(lp7
I0
aI0
aI0
aI0
aI0
aI0
aI0
aI0
aI0
aI0
aS'These included a direct tax, called taille, and a number of indirect taxes which were levied on articles of everyday consumption like salt or tobacco.'
p8
tp9
a(I0
(lp10
I0
aI0
aI0
aI0
aI0
aI0
aI0
aI0
aI0
aI0
aS'The news that Louis XVI planned to impose further taxes to be able to meet the expenses of the state generated anger and protest against the system of privileges.'
p11
tp12
a(I0
(lp13
I0
aI0
aI0
aI0
aI0
aI0
aI0
aI0
aI0
aI0
aS'Accounts of lived experiences in the Old Regime'
p14
tp15
a(I0
(lp16
I0
aI0
aI0
aI0
aI0
aI0
aI0
aI0
aI0
aI0
aS'The Outbreak of the Revolution'
p17
tp18
a(I0
(lp19
I0
aI0
aI0
aI0
aI0
aI0
aI0
aI0
aI0
aI0
aS'Rather he had to call a meeting of the Estates General which would then pass his proposals for new taxes.'
p20
tp21
a(I0
(lp22
I0
aI0
aI0
aI0
aI0
aI0
aI0
aI0
aI0
aI0
aS'On 5 May 1789, Louis XVI called together an assembly of the Estates General to pass proposals for new taxes.'
p23
tp24
a(I0
(lp25
I0
aI0
aI0
aI0
aI0
aI0
aI0
aI0
aI0
aI0
aS'Voting in the Estates General in the past had been conducted according to the principle that each estate had one vote.'
p26
tp27
a(I0
(lp28
F0.22792022792022792
aF0.05698005698005698
aF0.10994152046783626
aF0.0
aI2
aF0.0
aF0.1863905325443787
aF0.07967313585291114
aF0.030710172744721688
aF76.8421052631579
aS'But members of the third estate demanded that voting now be conducted by the assembly as a whole, where each member would have one vote.'
p29
tp30
a(I0
(lp31
I0
aI0
aI0
aI0
aI0
aI0
aI0
aI0
aI0
aI0
aS'When the king rejected this proposal, members of the third estate walked out of the assembly in protest.'
p32
tp33
a(I0
(lp34
I0
aI0
aI0
aI0
aI0
aI0
aI0
aI0
aI0
aI0
aS'On the night of 4 August 1789, the Assembly passed a decree abolishing the feudal system of obligations and taxes.'
p35
tp36
a(I0
(lp37
F0.2153846153846154
aF0.07179487179487179
aF0.08333333333333333
aF0.0
aI1
aF0.0
aF0.0958904109589041
aF0.04285714285714286
aF0.04195804195804196
aF36.44736842105263
aS'As a result, the government acquired assets worth at least 2 billion livres.'
p38
tp39
a(I0
(lp40
I0
aI0
aI0
aI0
aI0
aI0
aI0
aI0
aI0
aI0
aS'The revolutionary journalist Jean-Paul Marat commented in his newspaper L\xe2\x80\x99Ami du peuple ( The friend of the people) on the Constitution drafted by the National Assembly: \xe2\x80\x98The task of representing the people has been given to the rich ... the lot of the poor and oppressed will never be improved by peaceful means alone.'
p41
tp42
a(I0
(lp43
F0.2205128205128205
aF0.05512820512820513
aF0.03987240829346093
aF0.0
aI1
aF0.010966810966810967
aF0.1732283464566929
aF0.06409322651128915
aF0.05161290322580645
aF75.78947368421053
aS'The aim of every political association is the preservation of the natural and inalienable rights of man; these are liberty, property, security and resistance to oppression.'
p44
tp45
a(I0
(lp46
F0.2849002849002849
aF0.05698005698005698
aF0.11196105702364395
aF0.0
aI2
aF0.011337868480725622
aF0.2896174863387978
aF0.06784660766961652
aF0.05052631578947368
aF73.28947368421053
aS'Every citizen may speak, write and print freely; he must take responsibility for the abuse of such liberty in cases determined by the law.'
p47
tp48
a(I0
(lp49
I0
aI0
aI0
aI0
aI0
aI0
aI0
aI0
aI0
aI0
aS'Rulers of other neighbouring countries too were worried by the developments in France and made plans to send troops to put down the events that had been taking place there since the summer of 1789.'
p50
tp51
a(I0
(lp52
F0.18356643356643357
aF0.06118881118881119
aF0.14096916299559473
aF0.0
aI1
aF0.0
aF0.2572944297082228
aF0.06923837784371908
aF0.07920792079207921
aF62.76315789473684
aS'It was sung for the first time by volunteers from Marseilles as they marched into Paris and so got its name.'
p53
tp54
a(I0
(lp55
F0.34615384615384615
aF0.057692307692307696
aF0.15195369030390737
aF0.0
aI1
aF0.017223910840932114
aF0.3772893772893773
aF0.07829181494661921
aF0.06683804627249357
aF70.78947368421053
aS'The most successful of these clubs was that of the Jacobins, which got its name from the former convent of St Jacob in Paris.'
p56
tp57
a(I0
(lp58
F0.23717948717948717
aF0.05929487179487179
aF0.087
aF0.0
aI1
aF0.023624953857511996
aF0.17415730337078653
aF0.0634648370497427
aF0.06801909307875895
aF68.02631578947368
aS'As you know, a republic is a form of government where the people elect the government including the head of the government.'
p59
tp60
a(I0
(lp61
F0.2403846153846154
aF0.08012820512820512
aF0.13636363636363635
aF0.0
aI1
aF0.0
aF0.09836065573770492
aF0.10919540229885058
aF0.09615384615384616
aF28.289473684210527
aS'The queen Marie Antoinette met with the same fate shortly after.'
p62
tp63
a(I0
(lp64
F0.17692307692307693
aF0.08846153846153847
aF0.1111111111111111
aF0.0
aI0
aF0.0
aF0.38271604938271603
aF0.08200455580865604
aI0
aF29.60526315789474
aS'It was named after Dr Guillotin who invented it.'
p65
tp66
a(I0
(lp67
I0
aI0
aI0
aI0
aI0
aI0
aI0
aI0
aI0
aI0
aS'\xe2\x80\x98Some people believe that Liberty is like a child, which needs to go through a phase of being disciplined before it attains maturity.'
p68
tp69
a(I0
(lp70
F0.14835164835164835
aF0.07417582417582418
aF0.014285714285714285
aF0.0
aI1
aF0.0
aF0.29385964912280704
aF0.06738131699846861
aF0.09540034071550256
aF36.578947368421055
aS'In time of Revolution a democratic go vernment ma y rely on terror.'
p71
tp72
a(I0
(lp73
F0.14358974358974358
aF0.07179487179487179
aF0.137524557956778
aF0.0
aI1
aF0.0
aF0.2467948717948718
aF0.06762028608582575
aF0.07216494845360824
aF41.578947368421055
aS'Women could now train for jobs, could become artists or run small businesses.'
p74
tp75
a(I0
(lp76
F0.2408026755852843
aF0.06020066889632107
aF0.08578745198463508
aF0.0
aI1
aF0.01200154858691444
aF0.1876675603217158
aF0.0533033033033033
aF0.056074766355140186
aF62.36842105263158
aS'But the reluctance of Europeans to go and work in distant and unfamiliar lands meant a shortage of labour on the plantations.'
p77
tp78
a(I0
(lp79
F0.2923076923076923
aF0.11692307692307694
aF0.058726220016542596
aF0.0
aI1
aF0.01164021164021164
aF0.1393643031784841
aF0.06433224755700326
aF0.03333333333333333
aF69.21052631578948
aS'The National Assembly held long debates about whether the rights of man should be extended to all French subjects including those in the colonies.'
p80
tp81
a(I0
(lp82
F0.19038461538461537
aF0.06346153846153846
aF0.10098039215686275
aF0.0
aI1
aF0.0
aF0.2565789473684211
aF0.06623931623931624
aF0.05917159763313609
aF54.21052631578948
aS'But it did not pass any laws, fearing opposition from businessmen whose incomes depended on the slave trade.'
p83
tp84
a(I0
(lp85
F0.3010033444816054
aF0.06020066889632107
aF0.13795217657878603
aF0.0
aI2
aF0.00600077429345722
aF0.3110539845758355
aF0.09140625
aF0.04950495049504951
aF64.86842105263158
aS'The revolutionary governments took it upon themselves to pass laws that would translate the ideals of liberty and equality into everyday practice.'
p86
tp87
a(I0
(lp88
F0.3708791208791209
aF0.22252747252747251
aF0.2157829839704069
aF0.16666666666666666
aI0
aF0.022774327122153205
aF0.33225806451612905
aF0.059385382059800665
aF0.06289308176100629
aF38.42105263157895
aS'They all described and discussed the events and changes taking place in France.'
p89
tp90
a.